target datalayout = "e-m:e-p270:32:32-p271:32:32-p272:64:64-i64:64-i128:128-f80:128-n8:16:32:64-S128"
target triple = "x86_64-pc-linux-gnu"

%struct.ReorderBuffer = type { ptr, %struct.dlist_head, %struct.dlist_head, %struct.dclist_head, i32, ptr, ptr, ptr, ptr, ptr, ptr, ptr, ptr, ptr, ptr, ptr, ptr, ptr, ptr, ptr, ptr, ptr, ptr, ptr, ptr, i8, ptr, ptr, ptr, ptr, i64, ptr, i64, i64, ptr, i64, i64, i64, i64, i64, i64, i64, i64 }
%struct.dlist_head = type { %struct.dlist_node }
%struct.dlist_node = type { ptr, ptr }
%struct.dclist_head = type { %struct.dlist_head, i32 }
%struct.ReorderBufferChange = type { i64, i32, ptr, i16, %union.anon, %struct.dlist_node }
%union.anon = type { %struct.anon }
%struct.anon = type { %struct.RelFileLocator, i8, ptr, ptr }
%struct.RelFileLocator = type { i32, i32, i32 }

; Function Attrs: nounwind uwtable
define dso_local ptr @ReorderBufferGetChange(ptr noundef %0) #0 {
  %2 = alloca ptr, align 8
  %3 = alloca ptr, align 8
  store ptr %0, ptr %2, align 8
  call void @llvm.lifetime.start.p0(i64 8, ptr %3) #13
  %4 = load ptr, ptr %2, align 8
  %5 = getelementptr inbounds nuw %struct.ReorderBuffer, ptr %4, i32 0, i32 27
  %6 = load ptr, ptr %5, align 8
  %7 = call ptr @MemoryContextAlloc(ptr noundef %6, i64 noundef 80)
  store ptr %7, ptr %3, align 8
  %8 = load ptr, ptr %3, align 8
  call void @llvm.memset.p0.i64(ptr align 8 %8, i8 0, i64 80, i1 false)
  %9 = load ptr, ptr %3, align 8
  call void @llvm.lifetime.end.p0(i64 8, ptr %3) #13
  ret ptr %9
}

; Function Attrs: nounwind uwtable
define dso_local void @ReorderBufferAddSnapshot(ptr noundef %0, i32 noundef %1, i64 noundef %2, ptr noundef %3) #0 {
  %5 = alloca ptr, align 8
  %6 = alloca i32, align 4
  %7 = alloca i64, align 8
  %8 = alloca ptr, align 8
  %9 = alloca ptr, align 8
  store ptr %0, ptr %5, align 8
  store i32 %1, ptr %6, align 4
  store i64 %2, ptr %7, align 8
  store ptr %3, ptr %8, align 8
  call void @llvm.lifetime.start.p0(i64 8, ptr %9) #13
  %10 = load ptr, ptr %5, align 8
  %11 = call ptr @ReorderBufferGetChange(ptr noundef %10)
  store ptr %11, ptr %9, align 8
  %12 = load ptr, ptr %8, align 8
  %13 = load ptr, ptr %9, align 8
  %14 = getelementptr inbounds nuw %struct.ReorderBufferChange, ptr %13, i32 0, i32 4
  store ptr %12, ptr %14, align 8
  %15 = load ptr, ptr %9, align 8
  %16 = getelementptr inbounds nuw %struct.ReorderBufferChange, ptr %15, i32 0, i32 1
  store i32 5, ptr %16, align 8
  %17 = load ptr, ptr %5, align 8
  %18 = load i32, ptr %6, align 4
  %19 = load i64, ptr %7, align 8
  %20 = load ptr, ptr %9, align 8
  call void @ReorderBufferQueueChange(ptr noundef %17, i32 noundef %18, i64 noundef %19, ptr noundef %20, i1 noundef zeroext false)
  call void @llvm.lifetime.end.p0(i64 8, ptr %9) #13
  ret void
}