; Function Attrs: nounwind uwtable
define dso_local void @ReorderBufferAddSnapshot(ptr noundef %0, i32 noundef %1, i64 noundef %2, ptr noundef %3) local_unnamed_addr #0 {
  %5 = getelementptr inbounds nuw i8, ptr %0, i64 248
  %6 = load ptr, ptr %5, align 8
  %7 = tail call noundef ptr @MemoryContextAlloc(ptr noundef %6, i64 noundef 80) #19
  tail call void @llvm.memset.p0.i64(ptr noundef nonnull align 8 dereferenceable(80) %7, i8 0, i64 80, i1 false)
  %8 = getelementptr inbounds nuw i8, ptr %7, i64 32
  store ptr %3, ptr %8, align 8
  %9 = getelementptr inbounds nuw i8, ptr %7, i64 8
  store i32 5, ptr %9, align 8
  tail call void @ReorderBufferQueueChange(ptr noundef %0, i32 noundef %1, i64 noundef %2, ptr noundef nonnull %7, i1 noundef zeroext false)
  ret void
}